; ModuleID = '48/1534.c'
source_filename = "48/1534.c"
target datalayout = "e-m:e-p270:32:32-p271:32:32-p272:64:64-i64:64-f80:128-n8:16:32:64-S128"
target triple = "x86_64-pc-linux-gnu"

@.str = private unnamed_addr constant [6 x i8] c"%d %d\00", align 1
@.str.1 = private unnamed_addr constant [4 x i8] c"%d \00", align 1
@.str.2 = private unnamed_addr constant [4 x i8] c"%d\0A\00", align 1

; Function Attrs: noinline nounwind uwtable
define dso_local i32 @main() #0 {
  %1 = alloca i32, align 4
  %2 = alloca i32, align 4
  %3 = alloca i32, align 4
  %4 = alloca [11 x [11 x i32]], align 16
  %5 = alloca [11 x [11 x i32]], align 16
  %6 = alloca i32, align 4
  %7 = alloca i32, align 4
  %8 = alloca i32, align 4
  %9 = alloca i32, align 4
  store i32 0, i32* %1, align 4
  %10 = call i32 (i8*, ...) @__isoc99_scanf(i8* getelementptr inbounds ([6 x i8], [6 x i8]* @.str, i64 0, i64 0), i32* %2, i32* %3)
  %11 = bitcast [11 x [11 x i32]]* %4 to i8*
  call void @llvm.memset.p0i8.i64(i8* align 16 %11, i8 0, i64 484, i1 false)
  %12 = bitcast [11 x [11 x i32]]* %5 to i8*
  call void @llvm.memset.p0i8.i64(i8* align 16 %12, i8 0, i64 484, i1 false)
  %13 = load i32, i32* %2, align 4
  %14 = getelementptr inbounds [11 x [11 x i32]], [11 x [11 x i32]]* %4, i64 0, i64 5
  %15 = getelementptr inbounds [11 x i32], [11 x i32]* %14, i64 0, i64 5
  store i32 %13, i32* %15, align 4
  %16 = load i32, i32* %2, align 4
  %17 = getelementptr inbounds [11 x [11 x i32]], [11 x [11 x i32]]* %5, i64 0, i64 5
  %18 = getelementptr inbounds [11 x i32], [11 x i32]* %17, i64 0, i64 5
  store i32 %16, i32* %18, align 4
  store i32 0, i32* %8, align 4
  br label %19

19:                                               ; preds = %226, %0
  %20 = load i32, i32* %8, align 4
  %21 = load i32, i32* %3, align 4
  %22 = icmp slt i32 %20, %21
  br i1 %22, label %23, label %229

23:                                               ; preds = %19
  store i32 1, i32* %6, align 4
  br label %24

24:                                               ; preds = %193, %23
  %25 = load i32, i32* %6, align 4
  %26 = icmp slt i32 %25, 10
  br i1 %26, label %27, label %196

27:                                               ; preds = %24
  store i32 1, i32* %7, align 4
  br label %28

28:                                               ; preds = %189, %27
  %29 = load i32, i32* %7, align 4
  %30 = icmp slt i32 %29, 10
  br i1 %30, label %31, label %192

31:                                               ; preds = %28
  %32 = load i32, i32* %6, align 4
  %33 = sext i32 %32 to i64
  %34 = getelementptr inbounds [11 x [11 x i32]], [11 x [11 x i32]]* %5, i64 0, i64 %33
  %35 = load i32, i32* %7, align 4
  %36 = sext i32 %35 to i64
  %37 = getelementptr inbounds [11 x i32], [11 x i32]* %34, i64 0, i64 %36
  %38 = load i32, i32* %37, align 4
  %39 = icmp ne i32 %38, 0
  br i1 %39, label %40, label %188

40:                                               ; preds = %31
  %41 = load i32, i32* %6, align 4
  %42 = sext i32 %41 to i64
  %43 = getelementptr inbounds [11 x [11 x i32]], [11 x [11 x i32]]* %5, i64 0, i64 %42
  %44 = load i32, i32* %7, align 4
  %45 = sext i32 %44 to i64
  %46 = getelementptr inbounds [11 x i32], [11 x i32]* %43, i64 0, i64 %45
  %47 = load i32, i32* %46, align 4
  %48 = load i32, i32* %6, align 4
  %49 = sub nsw i32 %48, 1
  %50 = sext i32 %49 to i64
  %51 = getelementptr inbounds [11 x [11 x i32]], [11 x [11 x i32]]* %4, i64 0, i64 %50
  %52 = load i32, i32* %7, align 4
  %53 = sub nsw i32 %52, 1
  %54 = sext i32 %53 to i64
  %55 = getelementptr inbounds [11 x i32], [11 x i32]* %51, i64 0, i64 %54
  %56 = load i32, i32* %55, align 4
  %57 = add nsw i32 %56, %47
  store i32 %57, i32* %55, align 4
  %58 = load i32, i32* %6, align 4
  %59 = sext i32 %58 to i64
  %60 = getelementptr inbounds [11 x [11 x i32]], [11 x [11 x i32]]* %5, i64 0, i64 %59
  %61 = load i32, i32* %7, align 4
  %62 = sext i32 %61 to i64
  %63 = getelementptr inbounds [11 x i32], [11 x i32]* %60, i64 0, i64 %62
  %64 = load i32, i32* %63, align 4
  %65 = load i32, i32* %6, align 4
  %66 = sub nsw i32 %65, 1
  %67 = sext i32 %66 to i64
  %68 = getelementptr inbounds [11 x [11 x i32]], [11 x [11 x i32]]* %4, i64 0, i64 %67
  %69 = load i32, i32* %7, align 4
  %70 = sext i32 %69 to i64
  %71 = getelementptr inbounds [11 x i32], [11 x i32]* %68, i64 0, i64 %70
  %72 = load i32, i32* %71, align 4
  %73 = add nsw i32 %72, %64
  store i32 %73, i32* %71, align 4
  %74 = load i32, i32* %6, align 4
  %75 = sext i32 %74 to i64
  %76 = getelementptr inbounds [11 x [11 x i32]], [11 x [11 x i32]]* %5, i64 0, i64 %75
  %77 = load i32, i32* %7, align 4
  %78 = sext i32 %77 to i64
  %79 = getelementptr inbounds [11 x i32], [11 x i32]* %76, i64 0, i64 %78
  %80 = load i32, i32* %79, align 4
  %81 = load i32, i32* %6, align 4
  %82 = sub nsw i32 %81, 1
  %83 = sext i32 %82 to i64
  %84 = getelementptr inbounds [11 x [11 x i32]], [11 x [11 x i32]]* %4, i64 0, i64 %83
  %85 = load i32, i32* %7, align 4
  %86 = add nsw i32 %85, 1
  %87 = sext i32 %86 to i64
  %88 = getelementptr inbounds [11 x i32], [11 x i32]* %84, i64 0, i64 %87
  %89 = load i32, i32* %88, align 4
  %90 = add nsw i32 %89, %80
  store i32 %90, i32* %88, align 4
  %91 = load i32, i32* %6, align 4
  %92 = sext i32 %91 to i64
  %93 = getelementptr inbounds [11 x [11 x i32]], [11 x [11 x i32]]* %5, i64 0, i64 %92
  %94 = load i32, i32* %7, align 4
  %95 = sext i32 %94 to i64
  %96 = getelementptr inbounds [11 x i32], [11 x i32]* %93, i64 0, i64 %95
  %97 = load i32, i32* %96, align 4
  %98 = load i32, i32* %6, align 4
  %99 = sext i32 %98 to i64
  %100 = getelementptr inbounds [11 x [11 x i32]], [11 x [11 x i32]]* %4, i64 0, i64 %99
  %101 = load i32, i32* %7, align 4
  %102 = sub nsw i32 %101, 1
  %103 = sext i32 %102 to i64
  %104 = getelementptr inbounds [11 x i32], [11 x i32]* %100, i64 0, i64 %103
  %105 = load i32, i32* %104, align 4
  %106 = add nsw i32 %105, %97
  store i32 %106, i32* %104, align 4
  %107 = load i32, i32* %6, align 4
  %108 = sext i32 %107 to i64
  %109 = getelementptr inbounds [11 x [11 x i32]], [11 x [11 x i32]]* %5, i64 0, i64 %108
  %110 = load i32, i32* %7, align 4
  %111 = sext i32 %110 to i64
  %112 = getelementptr inbounds [11 x i32], [11 x i32]* %109, i64 0, i64 %111
  %113 = load i32, i32* %112, align 4
  %114 = load i32, i32* %6, align 4
  %115 = sext i32 %114 to i64
  %116 = getelementptr inbounds [11 x [11 x i32]], [11 x [11 x i32]]* %4, i64 0, i64 %115
  %117 = load i32, i32* %7, align 4
  %118 = add nsw i32 %117, 1
  %119 = sext i32 %118 to i64
  %120 = getelementptr inbounds [11 x i32], [11 x i32]* %116, i64 0, i64 %119
  %121 = load i32, i32* %120, align 4
  %122 = add nsw i32 %121, %113
  store i32 %122, i32* %120, align 4
  %123 = load i32, i32* %6, align 4
  %124 = sext i32 %123 to i64
  %125 = getelementptr inbounds [11 x [11 x i32]], [11 x [11 x i32]]* %5, i64 0, i64 %124
  %126 = load i32, i32* %7, align 4
  %127 = sext i32 %126 to i64
  %128 = getelementptr inbounds [11 x i32], [11 x i32]* %125, i64 0, i64 %127
  %129 = load i32, i32* %128, align 4
  %130 = load i32, i32* %6, align 4
  %131 = add nsw i32 %130, 1
  %132 = sext i32 %131 to i64
  %133 = getelementptr inbounds [11 x [11 x i32]], [11 x [11 x i32]]* %4, i64 0, i64 %132
  %134 = load i32, i32* %7, align 4
  %135 = sub nsw i32 %134, 1
  %136 = sext i32 %135 to i64
  %137 = getelementptr inbounds [11 x i32], [11 x i32]* %133, i64 0, i64 %136
  %138 = load i32, i32* %137, align 4
  %139 = add nsw i32 %138, %129
  store i32 %139, i32* %137, align 4
  %140 = load i32, i32* %6, align 4
  %141 = sext i32 %140 to i64
  %142 = getelementptr inbounds [11 x [11 x i32]], [11 x [11 x i32]]* %5, i64 0, i64 %141
  %143 = load i32, i32* %7, align 4
  %144 = sext i32 %143 to i64
  %145 = getelementptr inbounds [11 x i32], [11 x i32]* %142, i64 0, i64 %144
  %146 = load i32, i32* %145, align 4
  %147 = load i32, i32* %6, align 4
  %148 = add nsw i32 %147, 1
  %149 = sext i32 %148 to i64
  %150 = getelementptr inbounds [11 x [11 x i32]], [11 x [11 x i32]]* %4, i64 0, i64 %149
  %151 = load i32, i32* %7, align 4
  %152 = sext i32 %151 to i64
  %153 = getelementptr inbounds [11 x i32], [11 x i32]* %150, i64 0, i64 %152
  %154 = load i32, i32* %153, align 4
  %155 = add nsw i32 %154, %146
  store i32 %155, i32* %153, align 4
  %156 = load i32, i32* %6, align 4
  %157 = sext i32 %156 to i64
  %158 = getelementptr inbounds [11 x [11 x i32]], [11 x [11 x i32]]* %5, i64 0, i64 %157
  %159 = load i32, i32* %7, align 4
  %160 = sext i32 %159 to i64
  %161 = getelementptr inbounds [11 x i32], [11 x i32]* %158, i64 0, i64 %160
  %162 = load i32, i32* %161, align 4
  %163 = load i32, i32* %6, align 4
  %164 = add nsw i32 %163, 1
  %165 = sext i32 %164 to i64
  %166 = getelementptr inbounds [11 x [11 x i32]], [11 x [11 x i32]]* %4, i64 0, i64 %165
  %167 = load i32, i32* %7, align 4
  %168 = add nsw i32 %167, 1
  %169 = sext i32 %168 to i64
  %170 = getelementptr inbounds [11 x i32], [11 x i32]* %166, i64 0, i64 %169
  %171 = load i32, i32* %170, align 4
  %172 = add nsw i32 %171, %162
  store i32 %172, i32* %170, align 4
  %173 = load i32, i32* %6, align 4
  %174 = sext i32 %173 to i64
  %175 = getelementptr inbounds [11 x [11 x i32]], [11 x [11 x i32]]* %5, i64 0, i64 %174
  %176 = load i32, i32* %7, align 4
  %177 = sext i32 %176 to i64
  %178 = getelementptr inbounds [11 x i32], [11 x i32]* %175, i64 0, i64 %177
  %179 = load i32, i32* %178, align 4
  %180 = load i32, i32* %6, align 4
  %181 = sext i32 %180 to i64
  %182 = getelementptr inbounds [11 x [11 x i32]], [11 x [11 x i32]]* %4, i64 0, i64 %181
  %183 = load i32, i32* %7, align 4
  %184 = sext i32 %183 to i64
  %185 = getelementptr inbounds [11 x i32], [11 x i32]* %182, i64 0, i64 %184
  %186 = load i32, i32* %185, align 4
  %187 = add nsw i32 %186, %179
  store i32 %187, i32* %185, align 4
  br label %188

188:                                              ; preds = %40, %31
  br label %189

189:                                              ; preds = %188
  %190 = load i32, i32* %7, align 4
  %191 = add nsw i32 %190, 1
  store i32 %191, i32* %7, align 4
  br label %28

192:                                              ; preds = %28
  br label %193

193:                                              ; preds = %192
  %194 = load i32, i32* %6, align 4
  %195 = add nsw i32 %194, 1
  store i32 %195, i32* %6, align 4
  br label %24

196:                                              ; preds = %24
  store i32 0, i32* %6, align 4
  br label %197

197:                                              ; preds = %222, %196
  %198 = load i32, i32* %6, align 4
  %199 = icmp slt i32 %198, 11
  br i1 %199, label %200, label %225

200:                                              ; preds = %197
  store i32 0, i32* %7, align 4
  br label %201

201:                                              ; preds = %218, %200
  %202 = load i32, i32* %7, align 4
  %203 = icmp slt i32 %202, 11
  br i1 %203, label %204, label %221

204:                                              ; preds = %201
  %205 = load i32, i32* %6, align 4
  %206 = sext i32 %205 to i64
  %207 = getelementptr inbounds [11 x [11 x i32]], [11 x [11 x i32]]* %4, i64 0, i64 %206
  %208 = load i32, i32* %7, align 4
  %209 = sext i32 %208 to i64
  %210 = getelementptr inbounds [11 x i32], [11 x i32]* %207, i64 0, i64 %209
  %211 = load i32, i32* %210, align 4
  %212 = load i32, i32* %6, align 4
  %213 = sext i32 %212 to i64
  %214 = getelementptr inbounds [11 x [11 x i32]], [11 x [11 x i32]]* %5, i64 0, i64 %213
  %215 = load i32, i32* %7, align 4
  %216 = sext i32 %215 to i64
  %217 = getelementptr inbounds [11 x i32], [11 x i32]* %214, i64 0, i64 %216
  store i32 %211, i32* %217, align 4
  br label %218

218:                                              ; preds = %204
  %219 = load i32, i32* %7, align 4
  %220 = add nsw i32 %219, 1
  store i32 %220, i32* %7, align 4
  br label %201

221:                                              ; preds = %201
  br label %222

222:                                              ; preds = %221
  %223 = load i32, i32* %6, align 4
  %224 = add nsw i32 %223, 1
  store i32 %224, i32* %6, align 4
  br label %197

225:                                              ; preds = %197
  br label %226

226:                                              ; preds = %225
  %227 = load i32, i32* %8, align 4
  %228 = add nsw i32 %227, 1
  store i32 %228, i32* %8, align 4
  br label %19

229:                                              ; preds = %19
  store i32 1, i32* %6, align 4
  br label %230

230:                                              ; preds = %256, %229
  %231 = load i32, i32* %6, align 4
  %232 = icmp slt i32 %231, 10
  br i1 %232, label %233, label %259

233:                                              ; preds = %230
  store i32 1, i32* %7, align 4
  br label %234

234:                                              ; preds = %246, %233
  %235 = load i32, i32* %7, align 4
  %236 = icmp slt i32 %235, 9
  br i1 %236, label %237, label %249

237:                                              ; preds = %234
  %238 = load i32, i32* %6, align 4
  %239 = sext i32 %238 to i64
  %240 = getelementptr inbounds [11 x [11 x i32]], [11 x [11 x i32]]* %4, i64 0, i64 %239
  %241 = load i32, i32* %7, align 4
  %242 = sext i32 %241 to i64
  %243 = getelementptr inbounds [11 x i32], [11 x i32]* %240, i64 0, i64 %242
  %244 = load i32, i32* %243, align 4
  %245 = call i32 (i8*, ...) @printf(i8* getelementptr inbounds ([4 x i8], [4 x i8]* @.str.1, i64 0, i64 0), i32 %244)
  br label %246

246:                                              ; preds = %237
  %247 = load i32, i32* %7, align 4
  %248 = add nsw i32 %247, 1
  store i32 %248, i32* %7, align 4
  br label %234

249:                                              ; preds = %234
  %250 = load i32, i32* %6, align 4
  %251 = sext i32 %250 to i64
  %252 = getelementptr inbounds [11 x [11 x i32]], [11 x [11 x i32]]* %4, i64 0, i64 %251
  %253 = getelementptr inbounds [11 x i32], [11 x i32]* %252, i64 0, i64 9
  %254 = load i32, i32* %253, align 4
  %255 = call i32 (i8*, ...) @printf(i8* getelementptr inbounds ([4 x i8], [4 x i8]* @.str.2, i64 0, i64 0), i32 %254)
  br label %256

256:                                              ; preds = %249
  %257 = load i32, i32* %6, align 4
  %258 = add nsw i32 %257, 1
  store i32 %258, i32* %6, align 4
  br label %230

259:                                              ; preds = %230
  %260 = load i32, i32* %1, align 4
  ret i32 %260
}

declare dso_local i32 @__isoc99_scanf(i8*, ...) #1

; Function Attrs: argmemonly nounwind willreturn
declare void @llvm.memset.p0i8.i64(i8* nocapture writeonly, i8, i64, i1 immarg) #2

declare dso_local i32 @printf(i8*, ...) #1


!llvm.module.flags = !{!0}
!llvm.ident = !{!1}

!0 = !{i32 1, !"wchar_size", i32 4}
!1 = !{!"clang version 10.0.0-4ubuntu1 "}
