; ModuleID = 'source-C-CXX/47/1534.c'
source_filename = "source-C-CXX/47/1534.c"
target datalayout = "e-m:e-p270:32:32-p271:32:32-p272:64:64-i64:64-f80:128-n8:16:32:64-S128"
target triple = "x86_64-pc-linux-gnu"

@.str = private unnamed_addr constant [6 x i8] c"%d %d\00", align 1
@.str.1 = private unnamed_addr constant [4 x i8] c"%d \00", align 1
@.str.2 = private unnamed_addr constant [4 x i8] c"%d\0A\00", align 1

; Function Attrs: nofree nounwind sspstrong uwtable
define dso_local i32 @main() local_unnamed_addr #0 {
  %1 = alloca i32, align 4
  %2 = alloca i32, align 4
  %3 = alloca [11 x [11 x i32]], align 16
  %4 = bitcast [11 x [11 x i32]]* %3 to i8*
  %5 = alloca [11 x [11 x i32]], align 16
  %6 = bitcast [11 x [11 x i32]]* %5 to i8*
  %7 = bitcast i32* %1 to i8*
  call void @llvm.lifetime.start.p0i8(i64 4, i8* nonnull %7) #5
  %8 = bitcast i32* %2 to i8*
  call void @llvm.lifetime.start.p0i8(i64 4, i8* nonnull %8) #5
  %9 = call i32 (i8*, ...) @__isoc99_scanf(i8* getelementptr inbounds ([6 x i8], [6 x i8]* @.str, i64 0, i64 0), i32* nonnull %1, i32* nonnull %2)
  call void @llvm.lifetime.start.p0i8(i64 484, i8* nonnull %4) #5
  call void @llvm.memset.p0i8.i64(i8* noundef nonnull align 16 dereferenceable(484) %4, i8 0, i64 484, i1 false)
  call void @llvm.lifetime.start.p0i8(i64 484, i8* nonnull %6) #5
  call void @llvm.memset.p0i8.i64(i8* noundef nonnull align 16 dereferenceable(484) %6, i8 0, i64 484, i1 false)
  %10 = load i32, i32* %1, align 4, !tbaa !5
  %11 = getelementptr inbounds [11 x [11 x i32]], [11 x [11 x i32]]* %3, i64 0, i64 5, i64 5
  store i32 %10, i32* %11, align 16, !tbaa !5
  %12 = getelementptr inbounds [11 x [11 x i32]], [11 x [11 x i32]]* %5, i64 0, i64 5, i64 5
  store i32 %10, i32* %12, align 16, !tbaa !5
  %13 = load i32, i32* %2, align 4, !tbaa !5
  %14 = icmp sgt i32 %13, 0
  br i1 %14, label %15, label %66

15:                                               ; preds = %0, %63
  %16 = phi i32 [ %64, %63 ], [ 0, %0 ]
  br label %17

17:                                               ; preds = %15, %61
  %18 = phi i64 [ 1, %15 ], [ %20, %61 ]
  %19 = add nsw i64 %18, -1
  %20 = add nuw nsw i64 %18, 1
  br label %21

21:                                               ; preds = %17, %58
  %22 = phi i64 [ 1, %17 ], [ %59, %58 ]
  %23 = getelementptr inbounds [11 x [11 x i32]], [11 x [11 x i32]]* %5, i64 0, i64 %18, i64 %22
  %24 = load i32, i32* %23, align 4, !tbaa !5
  %25 = icmp eq i32 %24, 0
  br i1 %25, label %26, label %28

26:                                               ; preds = %21
  %27 = add nuw nsw i64 %22, 1
  br label %58

28:                                               ; preds = %21
  %29 = add nsw i64 %22, -1
  %30 = getelementptr inbounds [11 x [11 x i32]], [11 x [11 x i32]]* %3, i64 0, i64 %19, i64 %29
  %31 = load i32, i32* %30, align 4, !tbaa !5
  %32 = add nsw i32 %31, %24
  store i32 %32, i32* %30, align 4, !tbaa !5
  %33 = getelementptr inbounds [11 x [11 x i32]], [11 x [11 x i32]]* %3, i64 0, i64 %19, i64 %22
  %34 = load i32, i32* %33, align 4, !tbaa !5
  %35 = add nsw i32 %34, %24
  store i32 %35, i32* %33, align 4, !tbaa !5
  %36 = add nuw nsw i64 %22, 1
  %37 = getelementptr inbounds [11 x [11 x i32]], [11 x [11 x i32]]* %3, i64 0, i64 %19, i64 %36
  %38 = load i32, i32* %37, align 4, !tbaa !5
  %39 = add nsw i32 %38, %24
  store i32 %39, i32* %37, align 4, !tbaa !5
  %40 = getelementptr inbounds [11 x [11 x i32]], [11 x [11 x i32]]* %3, i64 0, i64 %18, i64 %29
  %41 = load i32, i32* %40, align 4, !tbaa !5
  %42 = add nsw i32 %41, %24
  store i32 %42, i32* %40, align 4, !tbaa !5
  %43 = getelementptr inbounds [11 x [11 x i32]], [11 x [11 x i32]]* %3, i64 0, i64 %18, i64 %36
  %44 = load i32, i32* %43, align 4, !tbaa !5
  %45 = add nsw i32 %44, %24
  store i32 %45, i32* %43, align 4, !tbaa !5
  %46 = getelementptr inbounds [11 x [11 x i32]], [11 x [11 x i32]]* %3, i64 0, i64 %20, i64 %29
  %47 = load i32, i32* %46, align 4, !tbaa !5
  %48 = add nsw i32 %47, %24
  store i32 %48, i32* %46, align 4, !tbaa !5
  %49 = getelementptr inbounds [11 x [11 x i32]], [11 x [11 x i32]]* %3, i64 0, i64 %20, i64 %22
  %50 = load i32, i32* %49, align 4, !tbaa !5
  %51 = add nsw i32 %50, %24
  store i32 %51, i32* %49, align 4, !tbaa !5
  %52 = getelementptr inbounds [11 x [11 x i32]], [11 x [11 x i32]]* %3, i64 0, i64 %20, i64 %36
  %53 = load i32, i32* %52, align 4, !tbaa !5
  %54 = add nsw i32 %53, %24
  store i32 %54, i32* %52, align 4, !tbaa !5
  %55 = getelementptr inbounds [11 x [11 x i32]], [11 x [11 x i32]]* %3, i64 0, i64 %18, i64 %22
  %56 = load i32, i32* %55, align 4, !tbaa !5
  %57 = add nsw i32 %56, %24
  store i32 %57, i32* %55, align 4, !tbaa !5
  br label %58

58:                                               ; preds = %26, %28
  %59 = phi i64 [ %27, %26 ], [ %36, %28 ]
  %60 = icmp eq i64 %59, 10
  br i1 %60, label %61, label %21, !llvm.loop !9

61:                                               ; preds = %58
  %62 = icmp eq i64 %20, 10
  br i1 %62, label %63, label %17, !llvm.loop !11

63:                                               ; preds = %61
  call void @llvm.memcpy.p0i8.p0i8.i64(i8* noundef nonnull align 16 dereferenceable(484) %6, i8* noundef nonnull align 16 dereferenceable(484) %4, i64 484, i1 false)
  %64 = add nuw nsw i32 %16, 1
  %65 = icmp eq i32 %64, %13
  br i1 %65, label %66, label %15, !llvm.loop !12

66:                                               ; preds = %63, %0
  br label %67

67:                                               ; preds = %66, %67
  %68 = phi i64 [ %96, %67 ], [ 1, %66 ]
  %69 = getelementptr inbounds [11 x [11 x i32]], [11 x [11 x i32]]* %3, i64 0, i64 %68, i64 1
  %70 = load i32, i32* %69, align 4, !tbaa !5
  %71 = call i32 (i8*, ...) @printf(i8* nonnull dereferenceable(1) getelementptr inbounds ([4 x i8], [4 x i8]* @.str.1, i64 0, i64 0), i32 %70)
  %72 = getelementptr inbounds [11 x [11 x i32]], [11 x [11 x i32]]* %3, i64 0, i64 %68, i64 2
  %73 = load i32, i32* %72, align 4, !tbaa !5
  %74 = call i32 (i8*, ...) @printf(i8* nonnull dereferenceable(1) getelementptr inbounds ([4 x i8], [4 x i8]* @.str.1, i64 0, i64 0), i32 %73)
  %75 = getelementptr inbounds [11 x [11 x i32]], [11 x [11 x i32]]* %3, i64 0, i64 %68, i64 3
  %76 = load i32, i32* %75, align 4, !tbaa !5
  %77 = call i32 (i8*, ...) @printf(i8* nonnull dereferenceable(1) getelementptr inbounds ([4 x i8], [4 x i8]* @.str.1, i64 0, i64 0), i32 %76)
  %78 = getelementptr inbounds [11 x [11 x i32]], [11 x [11 x i32]]* %3, i64 0, i64 %68, i64 4
  %79 = load i32, i32* %78, align 4, !tbaa !5
  %80 = call i32 (i8*, ...) @printf(i8* nonnull dereferenceable(1) getelementptr inbounds ([4 x i8], [4 x i8]* @.str.1, i64 0, i64 0), i32 %79)
  %81 = getelementptr inbounds [11 x [11 x i32]], [11 x [11 x i32]]* %3, i64 0, i64 %68, i64 5
  %82 = load i32, i32* %81, align 4, !tbaa !5
  %83 = call i32 (i8*, ...) @printf(i8* nonnull dereferenceable(1) getelementptr inbounds ([4 x i8], [4 x i8]* @.str.1, i64 0, i64 0), i32 %82)
  %84 = getelementptr inbounds [11 x [11 x i32]], [11 x [11 x i32]]* %3, i64 0, i64 %68, i64 6
  %85 = load i32, i32* %84, align 4, !tbaa !5
  %86 = call i32 (i8*, ...) @printf(i8* nonnull dereferenceable(1) getelementptr inbounds ([4 x i8], [4 x i8]* @.str.1, i64 0, i64 0), i32 %85)
  %87 = getelementptr inbounds [11 x [11 x i32]], [11 x [11 x i32]]* %3, i64 0, i64 %68, i64 7
  %88 = load i32, i32* %87, align 4, !tbaa !5
  %89 = call i32 (i8*, ...) @printf(i8* nonnull dereferenceable(1) getelementptr inbounds ([4 x i8], [4 x i8]* @.str.1, i64 0, i64 0), i32 %88)
  %90 = getelementptr inbounds [11 x [11 x i32]], [11 x [11 x i32]]* %3, i64 0, i64 %68, i64 8
  %91 = load i32, i32* %90, align 4, !tbaa !5
  %92 = call i32 (i8*, ...) @printf(i8* nonnull dereferenceable(1) getelementptr inbounds ([4 x i8], [4 x i8]* @.str.1, i64 0, i64 0), i32 %91)
  %93 = getelementptr inbounds [11 x [11 x i32]], [11 x [11 x i32]]* %3, i64 0, i64 %68, i64 9
  %94 = load i32, i32* %93, align 4, !tbaa !5
  %95 = call i32 (i8*, ...) @printf(i8* nonnull dereferenceable(1) getelementptr inbounds ([4 x i8], [4 x i8]* @.str.2, i64 0, i64 0), i32 %94)
  %96 = add nuw nsw i64 %68, 1
  %97 = icmp eq i64 %96, 10
  br i1 %97, label %98, label %67, !llvm.loop !13

98:                                               ; preds = %67
  call void @llvm.lifetime.end.p0i8(i64 484, i8* nonnull %6) #5
  call void @llvm.lifetime.end.p0i8(i64 484, i8* nonnull %4) #5
  call void @llvm.lifetime.end.p0i8(i64 4, i8* nonnull %8) #5
  call void @llvm.lifetime.end.p0i8(i64 4, i8* nonnull %7) #5
  ret i32 0
}

; Function Attrs: argmemonly mustprogress nofree nosync nounwind willreturn
declare void @llvm.lifetime.start.p0i8(i64 immarg, i8* nocapture) #1

; Function Attrs: nofree nounwind
declare noundef i32 @__isoc99_scanf(i8* nocapture noundef readonly, ...) local_unnamed_addr #2

; Function Attrs: argmemonly mustprogress nofree nounwind willreturn writeonly
declare void @llvm.memset.p0i8.i64(i8* nocapture writeonly, i8, i64, i1 immarg) #3

; Function Attrs: nofree nounwind
declare noundef i32 @printf(i8* nocapture noundef readonly, ...) local_unnamed_addr #2

; Function Attrs: argmemonly mustprogress nofree nosync nounwind willreturn
declare void @llvm.lifetime.end.p0i8(i64 immarg, i8* nocapture) #1

; Function Attrs: argmemonly nofree nounwind willreturn
declare void @llvm.memcpy.p0i8.p0i8.i64(i8* noalias nocapture writeonly, i8* noalias nocapture readonly, i64, i1 immarg) #4


!llvm.module.flags = !{!0, !1, !2, !3}
!llvm.ident = !{!4}

!0 = !{i32 1, !"wchar_size", i32 4}
!1 = !{i32 7, !"PIC Level", i32 2}
!2 = !{i32 7, !"PIE Level", i32 2}
!3 = !{i32 7, !"uwtable", i32 1}
!4 = !{!"clang version 13.0.0"}
!5 = !{!6, !6, i64 0}
!6 = !{!"int", !7, i64 0}
!7 = !{!"omnipotent char", !8, i64 0}
!8 = !{!"Simple C/C++ TBAA"}
!9 = distinct !{!9, !10}
!10 = !{!"llvm.loop.mustprogress"}
!11 = distinct !{!11, !10}
!12 = distinct !{!12, !10}
!13 = distinct !{!13, !10}
